Certificate:
    Data:
        Version: 3 (0x2)
        Serial Number:
            70:c5:28:a4:21:6a:b7:38:49:30:cc:ba:6c:0a:2b:9b
        Signature Algorithm: sha256WithRSAEncryption
        Issuer: CN=Easy-RSA CA
        Validity
            Not Before: Mar 24 13:02:42 2024 GMT
            Not After : Mar 22 13:02:42 2034 GMT
        Subject: CN=TJNB02WC310172
        Subject Public Key Info:
            Public Key Algorithm: rsaEncryption
                Public-Key: (2048 bit)
                Modulus:
                    00:b8:b6:cd:f6:42:61:1d:e3:e2:2d:c8:9d:1b:95:
                    4e:b4:45:b8:f5:b2:2f:b1:6a:49:94:ed:c0:fd:62:
                    ef:c4:26:d5:70:1e:1e:ca:3a:c0:e9:2a:f7:1a:5e:
                    9a:46:51:f2:29:c5:64:9d:80:7f:33:ab:c5:6e:5a:
                    18:9a:1a:da:31:7b:00:95:7f:d8:8a:ec:a4:6f:02:
                    ba:07:ff:cf:ed:df:b8:6b:75:24:ed:96:c8:1e:61:
                    eb:d4:26:7b:9c:e7:3b:da:6e:d7:b9:ef:00:11:31:
                    4a:b8:1d:06:34:21:b6:85:a6:3e:df:c9:24:7e:96:
                    02:ae:1f:bf:29:63:b9:71:29:85:13:1a:73:e9:3a:
                    a3:90:99:cc:fa:46:a4:52:4e:70:07:82:2c:6c:21:
                    8f:d2:48:0f:67:03:1f:d6:8c:66:38:c7:2d:e1:3a:
                    c9:06:5b:f6:aa:77:50:2b:fe:dc:0d:a0:49:9c:ea:
                    88:ff:90:bc:98:a2:67:c8:04:25:6d:88:22:8f:cd:
                    21:3d:8b:6a:7f:1c:5c:a6:ea:90:6e:3e:24:c4:e6:
                    d5:d0:45:7e:e8:df:5e:45:5d:de:8f:32:d2:01:35:
                    47:27:7f:a1:9e:d1:cd:f6:73:13:14:08:85:0b:26:
                    77:be:7b:de:6f:6d:ec:8a:e8:e3:30:20:ca:d6:52:
                    09:45
                Exponent: 65537 (0x10001)
        X509v3 extensions:
            X509v3 Basic Constraints: 
                CA:FALSE
            X509v3 Subject Key Identifier: 
                8E:A3:EE:C9:47:B3:0F:55:BA:4C:FD:FA:49:3D:A5:6F:2A:33:41:A2
            X509v3 Authority Key Identifier: 
                keyid:16:17:44:06:41:95:D9:E0:BB:E4:C7:FE:CD:EC:A2:A3:C3:71:8A:78
                DirName:/CN=Easy-RSA CA
                serial:79:54:30:87:25:3C:00:40:46:54:1D:4F:37:9A:FF:70:4F:C1:B9:00
            X509v3 Extended Key Usage: 
                TLS Web Server Authentication
            X509v3 Key Usage: 
                Digital Signature, Key Encipherment
            X509v3 Subject Alternative Name: 
                DNS:TJNB02WC310172
    Signature Algorithm: sha256WithRSAEncryption
    Signature Value:
        4a:97:38:4b:d2:23:40:b1:f3:97:27:0d:4c:04:c9:a8:3e:6b:
        e2:10:38:87:73:cc:2d:c4:37:8e:dd:d9:4e:13:f7:de:34:e5:
        58:42:fe:dd:11:2c:4e:d6:90:c6:1f:e1:54:27:40:2f:e5:aa:
        b5:d0:1e:d4:3f:4d:5d:25:31:2b:90:31:5c:1e:62:bb:ce:c1:
        cb:e7:a7:46:4c:1f:d4:ee:25:40:8f:9f:29:69:30:42:c0:46:
        b0:55:41:8f:22:f2:03:c3:80:4c:3c:b6:b5:fa:f7:af:1a:1e:
        f8:5b:d7:d1:6e:06:56:5e:07:29:42:7b:6d:64:ef:33:24:1b:
        1e:e1:88:7e:ae:b6:69:de:b8:31:06:a2:df:34:b5:da:d9:b3:
        bc:9b:4f:6d:77:67:fa:59:60:5e:c3:76:1f:95:f1:cf:5e:fa:
        41:38:37:69:d7:d1:f9:b9:e9:93:d6:b4:6c:10:3a:7e:f0:18:
        0f:f5:58:66:18:13:47:d4:fd:de:24:82:db:3d:67:b7:dd:91:
        73:3a:aa:28:7d:c1:e4:f5:b1:4c:54:97:ff:78:2f:95:45:fa:
        65:34:f7:c6:60:bc:4f:3e:28:9d:f7:ef:7e:f5:dd:07:f6:0a:
        96:e1:28:02:25:26:b1:64:fd:e0:37:b2:d6:4a:bf:ec:5f:9f:
        d7:fc:58:ca
-----BEGIN CERTIFICATE-----
MIIDdzCCAl+gAwIBAgIQcMUopCFqtzhJMMy6bAormzANBgkqhkiG9w0BAQsFADAW
MRQwEgYDVQQDDAtFYXN5LVJTQSBDQTAeFw0yNDAzMjQxMzAyNDJaFw0zNDAzMjIx
MzAyNDJaMBkxFzAVBgNVBAMMDlRKTkIwMldDMzEwMTcyMIIBIjANBgkqhkiG9w0B
AQEFAAOCAQ8AMIIBCgKCAQEAuLbN9kJhHePiLcidG5VOtEW49bIvsWpJlO3A/WLv
xCbVcB4eyjrA6Sr3Gl6aRlHyKcVknYB/M6vFbloYmhraMXsAlX/YiuykbwK6B//P
7d+4a3Uk7ZbIHmHr1CZ7nOc72m7Xue8AETFKuB0GNCG2haY+38kkfpYCrh+/KWO5
cSmFExpz6TqjkJnM+kakUk5wB4IsbCGP0kgPZwMf1oxmOMct4TrJBlv2qndQK/7c
DaBJnOqI/5C8mKJnyAQlbYgij80hPYtqfxxcpuqQbj4kxObV0EV+6N9eRV3ejzLS
ATVHJ3+hntHN9nMTFAiFCyZ3vnveb23siujjMCDK1lIJRQIDAQABo4G9MIG6MAkG
A1UdEwQCMAAwHQYDVR0OBBYEFI6j7slHsw9Vukz9+kk9pW8qM0GiMFEGA1UdIwRK
MEiAFBYXRAZBldngu+TH/s3soqPDcYp4oRqkGDAWMRQwEgYDVQQDDAtFYXN5LVJT
QSBDQYIUeVQwhyU8AEBGVB1PN5r/cE/BuQAwEwYDVR0lBAwwCgYIKwYBBQUHAwEw
CwYDVR0PBAQDAgWgMBkGA1UdEQQSMBCCDlRKTkIwMldDMzEwMTcyMA0GCSqGSIb3
DQEBCwUAA4IBAQBKlzhL0iNAsfOXJw1MBMmoPmviEDiHc8wtxDeO3dlOE/feNOVY
Qv7dESxO1pDGH+FUJ0Av5aq10B7UP01dJTErkDFcHmK7zsHL56dGTB/U7iVAj58p
aTBCwEawVUGPIvIDw4BMPLa1+vevGh74W9fRbgZWXgcpQnttZO8zJBse4Yh+rrZp
3rgxBqLfNLXa2bO8m09td2f6WWBew3YflfHPXvpBODdp19H5uemT1rRsEDp+8BgP
9VhmGBNH1P3eJILbPWe33ZFzOqoofcHk9bFMVJf/eC+VRfplNPfGYLxPPiid9+9+
9d0H9gqW4SgCJSaxZP3gN7LWSr/sX5/X/FjK
-----END CERTIFICATE-----
